; Function Attrs: mustprogress uwtable
define dso_local noundef zeroext i1 @_ZN22cmCTestMemCheckHandler21ProcessMemCheckOutputERKNSt7__cxx1112basic_stringIcSt11char_traitsIcESaIcEEERS5_RSt6vectorIiSaIiEE(ptr noundef nonnull align 8 dereferenceable(4760) %0, ptr noundef nonnull align 8 dereferenceable(32) %1, ptr noundef nonnull align 8 dereferenceable(32) %2, ptr nocapture noundef nonnull align 8 dereferenceable(24) %3) local_unnamed_addr #3 align 2 {
  %5 = getelementptr inbounds i8, ptr %0, i64 4560
  %6 = load i32, ptr %5, align 8
  switch i32 %6, label %19 [
    i32 1, label %7
    i32 3, label %9
    i32 2, label %11
    i32 6, label %13
    i32 7, label %13
    i32 8, label %13
    i32 9, label %13
    i32 10, label %13
    i32 4, label %15
    i32 5, label %17
  ]

7:                                                ; preds = %4
  %8 = tail call noundef zeroext i1 @_ZN22cmCTestMemCheckHandler29ProcessMemCheckValgrindOutputERKNSt7__cxx1112basic_stringIcSt11char_traitsIcESaIcEEERS5_RSt6vectorIiSaIiEE(ptr noundef nonnull align 8 dereferenceable(4760) %0, ptr noundef nonnull align 8 dereferenceable(32) %1, ptr noundef nonnull align 8 dereferenceable(32) %2, ptr noundef nonnull align 8 dereferenceable(24) %3)
  br label %23

9:                                                ; preds = %4
  %10 = tail call noundef zeroext i1 @_ZN22cmCTestMemCheckHandler29ProcessMemCheckDrMemoryOutputERKNSt7__cxx1112basic_stringIcSt11char_traitsIcESaIcEEERS5_RSt6vectorIiSaIiEE(ptr noundef nonnull align 8 dereferenceable(4760) %0, ptr noundef nonnull align 8 dereferenceable(32) %1, ptr noundef nonnull align 8 dereferenceable(32) %2, ptr noundef nonnull align 8 dereferenceable(24) %3)
  br label %23

11:                                               ; preds = %4
  %12 = tail call noundef zeroext i1 @_ZN22cmCTestMemCheckHandler27ProcessMemCheckPurifyOutputERKNSt7__cxx1112basic_stringIcSt11char_traitsIcESaIcEEERS5_RSt6vectorIiSaIiEE(ptr noundef nonnull align 8 dereferenceable(4760) %0, ptr noundef nonnull align 8 dereferenceable(32) %1, ptr noundef nonnull align 8 dereferenceable(32) %2, ptr noundef nonnull align 8 dereferenceable(24) %3)
  br label %23

13:                                               ; preds = %4, %4, %4, %4, %4
  %14 = tail call noundef zeroext i1 @_ZN22cmCTestMemCheckHandler30ProcessMemCheckSanitizerOutputERKNSt7__cxx1112basic_stringIcSt11char_traitsIcESaIcEEERS5_RSt6vectorIiSaIiEE(ptr noundef nonnull align 8 dereferenceable(4760) %0, ptr noundef nonnull align 8 dereferenceable(32) %1, ptr noundef nonnull align 8 dereferenceable(32) %2, ptr noundef nonnull align 8 dereferenceable(24) %3)
  br label %23

15:                                               ; preds = %4
  %16 = tail call noundef zeroext i1 @_ZN22cmCTestMemCheckHandler34ProcessMemCheckBoundsCheckerOutputERKNSt7__cxx1112basic_stringIcSt11char_traitsIcESaIcEEERS5_RSt6vectorIiSaIiEE(ptr noundef nonnull align 8 dereferenceable(4760) %0, ptr noundef nonnull align 8 dereferenceable(32) %1, ptr noundef nonnull align 8 dereferenceable(32) %2, ptr noundef nonnull align 8 dereferenceable(24) %3)
  br label %23

17:                                               ; preds = %4
  %18 = tail call noundef zeroext i1 @_ZN22cmCTestMemCheckHandler25ProcessMemCheckCudaOutputERKNSt7__cxx1112basic_stringIcSt11char_traitsIcESaIcEEERS5_RSt6vectorIiSaIiEE(ptr noundef nonnull align 8 dereferenceable(4760) %0, ptr noundef nonnull align 8 dereferenceable(32) %1, ptr noundef nonnull align 8 dereferenceable(32) %2, ptr noundef nonnull align 8 dereferenceable(24) %3)
  br label %23

19:                                               ; preds = %4
  %20 = tail call noundef nonnull align 8 dereferenceable(32) ptr @_ZNSt7__cxx1112basic_stringIcSt11char_traitsIcESaIcEE6appendEPKc(ptr noundef nonnull align 8 dereferenceable(32) %2, ptr noundef nonnull @.str.141)
  %21 = tail call noundef nonnull align 8 dereferenceable(32) ptr @_ZNSt7__cxx1112basic_stringIcSt11char_traitsIcESaIcEE6appendEPKc(ptr noundef nonnull align 8 dereferenceable(32) %2, ptr noundef nonnull @.str.142)
  %22 = tail call noundef nonnull align 8 dereferenceable(32) ptr @_ZNSt7__cxx1112basic_stringIcSt11char_traitsIcESaIcEEaSERKS4_(ptr noundef nonnull align 8 dereferenceable(32) %2, ptr noundef nonnull align 8 dereferenceable(32) %1)
  br label %23

23:                                               ; preds = %19, %17, %15, %13, %11, %9, %7
  %.0 = phi i1 [ true, %19 ], [ %18, %17 ], [ %16, %15 ], [ %14, %13 ], [ %12, %11 ], [ %10, %9 ], [ %8, %7 ]
  ret i1 %.0
}